target datalayout = "e-m:e-p270:32:32-p271:32:32-p272:64:64-i64:64-i128:128-f80:128-n8:16:32:64-S128"
target triple = "x86_64-unknown-linux-gnu"

%"class.Assimp::BlenderBMeshConverter" = type { ptr, ptr }
%"struct.Assimp::Blender::Mesh" = type { %"struct.Assimp::Blender::ElemBase", %"struct.Assimp::Blender::ID", i32, i32, i32, i32, i32, i16, i16, i16, i16, %"class.Assimp::Blender::vector", %"class.Assimp::Blender::vector.0", %"class.Assimp::Blender::vector.6", %"class.Assimp::Blender::vector.12", %"class.Assimp::Blender::vector.18", %"class.Assimp::Blender::vector.24", %"class.Assimp::Blender::vector.30", %"class.Assimp::Blender::vector.36", %"class.Assimp::Blender::vector.42", %"class.Assimp::Blender::vector.48", %"class.Assimp::Blender::vector.54", %"class.Assimp::Blender::vector.60", %"class.Assimp::Blender::vector.66", %"struct.Assimp::Blender::CustomData", %"struct.Assimp::Blender::CustomData", %"struct.Assimp::Blender::CustomData", %"struct.Assimp::Blender::CustomData", %"struct.Assimp::Blender::CustomData" }
%"struct.Assimp::Blender::ElemBase" = type { ptr, ptr }
%"struct.Assimp::Blender::ID" = type <{ %"struct.Assimp::Blender::ElemBase", [1024 x i8], i16, [6 x i8] }>
%"class.Assimp::Blender::vector" = type { %"class.std::vector" }
%"class.std::vector" = type { %"struct.std::_Vector_base" }
%"struct.std::_Vector_base" = type { %"struct.std::_Vector_base<Assimp::Blender::MFace, std::allocator<Assimp::Blender::MFace>>::_Vector_impl" }
%"struct.std::_Vector_base<Assimp::Blender::MFace, std::allocator<Assimp::Blender::MFace>>::_Vector_impl" = type { %"struct.std::_Vector_base<Assimp::Blender::MFace, std::allocator<Assimp::Blender::MFace>>::_Vector_impl_data" }
%"struct.std::_Vector_base<Assimp::Blender::MFace, std::allocator<Assimp::Blender::MFace>>::_Vector_impl_data" = type { ptr, ptr, ptr }
%"class.Assimp::Blender::vector.0" = type { %"class.std::vector.1" }
%"class.std::vector.1" = type { %"struct.std::_Vector_base.2" }
%"struct.std::_Vector_base.2" = type { %"struct.std::_Vector_base<Assimp::Blender::MTFace, std::allocator<Assimp::Blender::MTFace>>::_Vector_impl" }
%"struct.std::_Vector_base<Assimp::Blender::MTFace, std::allocator<Assimp::Blender::MTFace>>::_Vector_impl" = type { %"struct.std::_Vector_base<Assimp::Blender::MTFace, std::allocator<Assimp::Blender::MTFace>>::_Vector_impl_data" }
%"struct.std::_Vector_base<Assimp::Blender::MTFace, std::allocator<Assimp::Blender::MTFace>>::_Vector_impl_data" = type { ptr, ptr, ptr }
%"class.Assimp::Blender::vector.6" = type { %"class.std::vector.7" }
%"class.std::vector.7" = type { %"struct.std::_Vector_base.8" }
%"struct.std::_Vector_base.8" = type { %"struct.std::_Vector_base<Assimp::Blender::TFace, std::allocator<Assimp::Blender::TFace>>::_Vector_impl" }
%"struct.std::_Vector_base<Assimp::Blender::TFace, std::allocator<Assimp::Blender::TFace>>::_Vector_impl" = type { %"struct.std::_Vector_base<Assimp::Blender::TFace, std::allocator<Assimp::Blender::TFace>>::_Vector_impl_data" }
%"struct.std::_Vector_base<Assimp::Blender::TFace, std::allocator<Assimp::Blender::TFace>>::_Vector_impl_data" = type { ptr, ptr, ptr }
%"class.Assimp::Blender::vector.12" = type { %"class.std::vector.13" }
%"class.std::vector.13" = type { %"struct.std::_Vector_base.14" }
%"struct.std::_Vector_base.14" = type { %"struct.std::_Vector_base<Assimp::Blender::MVert, std::allocator<Assimp::Blender::MVert>>::_Vector_impl" }
%"struct.std::_Vector_base<Assimp::Blender::MVert, std::allocator<Assimp::Blender::MVert>>::_Vector_impl" = type { %"struct.std::_Vector_base<Assimp::Blender::MVert, std::allocator<Assimp::Blender::MVert>>::_Vector_impl_data" }
%"struct.std::_Vector_base<Assimp::Blender::MVert, std::allocator<Assimp::Blender::MVert>>::_Vector_impl_data" = type { ptr, ptr, ptr }
%"class.Assimp::Blender::vector.18" = type { %"class.std::vector.19" }
%"class.std::vector.19" = type { %"struct.std::_Vector_base.20" }
%"struct.std::_Vector_base.20" = type { %"struct.std::_Vector_base<Assimp::Blender::MEdge, std::allocator<Assimp::Blender::MEdge>>::_Vector_impl" }
%"struct.std::_Vector_base<Assimp::Blender::MEdge, std::allocator<Assimp::Blender::MEdge>>::_Vector_impl" = type { %"struct.std::_Vector_base<Assimp::Blender::MEdge, std::allocator<Assimp::Blender::MEdge>>::_Vector_impl_data" }
%"struct.std::_Vector_base<Assimp::Blender::MEdge, std::allocator<Assimp::Blender::MEdge>>::_Vector_impl_data" = type { ptr, ptr, ptr }
%"class.Assimp::Blender::vector.24" = type { %"class.std::vector.25" }
%"class.std::vector.25" = type { %"struct.std::_Vector_base.26" }
%"struct.std::_Vector_base.26" = type { %"struct.std::_Vector_base<Assimp::Blender::MLoop, std::allocator<Assimp::Blender::MLoop>>::_Vector_impl" }
%"struct.std::_Vector_base<Assimp::Blender::MLoop, std::allocator<Assimp::Blender::MLoop>>::_Vector_impl" = type { %"struct.std::_Vector_base<Assimp::Blender::MLoop, std::allocator<Assimp::Blender::MLoop>>::_Vector_impl_data" }
%"struct.std::_Vector_base<Assimp::Blender::MLoop, std::allocator<Assimp::Blender::MLoop>>::_Vector_impl_data" = type { ptr, ptr, ptr }
%"class.Assimp::Blender::vector.30" = type { %"class.std::vector.31" }
%"class.std::vector.31" = type { %"struct.std::_Vector_base.32" }
%"struct.std::_Vector_base.32" = type { %"struct.std::_Vector_base<Assimp::Blender::MLoopUV, std::allocator<Assimp::Blender::MLoopUV>>::_Vector_impl" }
%"struct.std::_Vector_base<Assimp::Blender::MLoopUV, std::allocator<Assimp::Blender::MLoopUV>>::_Vector_impl" = type { %"struct.std::_Vector_base<Assimp::Blender::MLoopUV, std::allocator<Assimp::Blender::MLoopUV>>::_Vector_impl_data" }
%"struct.std::_Vector_base<Assimp::Blender::MLoopUV, std::allocator<Assimp::Blender::MLoopUV>>::_Vector_impl_data" = type { ptr, ptr, ptr }
%"class.Assimp::Blender::vector.36" = type { %"class.std::vector.37" }
%"class.std::vector.37" = type { %"struct.std::_Vector_base.38" }
%"struct.std::_Vector_base.38" = type { %"struct.std::_Vector_base<Assimp::Blender::MLoopCol, std::allocator<Assimp::Blender::MLoopCol>>::_Vector_impl" }
%"struct.std::_Vector_base<Assimp::Blender::MLoopCol, std::allocator<Assimp::Blender::MLoopCol>>::_Vector_impl" = type { %"struct.std::_Vector_base<Assimp::Blender::MLoopCol, std::allocator<Assimp::Blender::MLoopCol>>::_Vector_impl_data" }
%"struct.std::_Vector_base<Assimp::Blender::MLoopCol, std::allocator<Assimp::Blender::MLoopCol>>::_Vector_impl_data" = type { ptr, ptr, ptr }
%"class.Assimp::Blender::vector.42" = type { %"class.std::vector.43" }
%"class.std::vector.43" = type { %"struct.std::_Vector_base.44" }
%"struct.std::_Vector_base.44" = type { %"struct.std::_Vector_base<Assimp::Blender::MPoly, std::allocator<Assimp::Blender::MPoly>>::_Vector_impl" }
%"struct.std::_Vector_base<Assimp::Blender::MPoly, std::allocator<Assimp::Blender::MPoly>>::_Vector_impl" = type { %"struct.std::_Vector_base<Assimp::Blender::MPoly, std::allocator<Assimp::Blender::MPoly>>::_Vector_impl_data" }
%"struct.std::_Vector_base<Assimp::Blender::MPoly, std::allocator<Assimp::Blender::MPoly>>::_Vector_impl_data" = type { ptr, ptr, ptr }
%"class.Assimp::Blender::vector.48" = type { %"class.std::vector.49" }
%"class.std::vector.49" = type { %"struct.std::_Vector_base.50" }
%"struct.std::_Vector_base.50" = type { %"struct.std::_Vector_base<Assimp::Blender::MTexPoly, std::allocator<Assimp::Blender::MTexPoly>>::_Vector_impl" }
%"struct.std::_Vector_base<Assimp::Blender::MTexPoly, std::allocator<Assimp::Blender::MTexPoly>>::_Vector_impl" = type { %"struct.std::_Vector_base<Assimp::Blender::MTexPoly, std::allocator<Assimp::Blender::MTexPoly>>::_Vector_impl_data" }
%"struct.std::_Vector_base<Assimp::Blender::MTexPoly, std::allocator<Assimp::Blender::MTexPoly>>::_Vector_impl_data" = type { ptr, ptr, ptr }
%"class.Assimp::Blender::vector.54" = type { %"class.std::vector.55" }
%"class.std::vector.55" = type { %"struct.std::_Vector_base.56" }
%"struct.std::_Vector_base.56" = type { %"struct.std::_Vector_base<Assimp::Blender::MDeformVert, std::allocator<Assimp::Blender::MDeformVert>>::_Vector_impl" }
%"struct.std::_Vector_base<Assimp::Blender::MDeformVert, std::allocator<Assimp::Blender::MDeformVert>>::_Vector_impl" = type { %"struct.std::_Vector_base<Assimp::Blender::MDeformVert, std::allocator<Assimp::Blender::MDeformVert>>::_Vector_impl_data" }
%"struct.std::_Vector_base<Assimp::Blender::MDeformVert, std::allocator<Assimp::Blender::MDeformVert>>::_Vector_impl_data" = type { ptr, ptr, ptr }
%"class.Assimp::Blender::vector.60" = type { %"class.std::vector.61" }
%"class.std::vector.61" = type { %"struct.std::_Vector_base.62" }
%"struct.std::_Vector_base.62" = type { %"struct.std::_Vector_base<Assimp::Blender::MCol, std::allocator<Assimp::Blender::MCol>>::_Vector_impl" }
%"struct.std::_Vector_base<Assimp::Blender::MCol, std::allocator<Assimp::Blender::MCol>>::_Vector_impl" = type { %"struct.std::_Vector_base<Assimp::Blender::MCol, std::allocator<Assimp::Blender::MCol>>::_Vector_impl_data" }
%"struct.std::_Vector_base<Assimp::Blender::MCol, std::allocator<Assimp::Blender::MCol>>::_Vector_impl_data" = type { ptr, ptr, ptr }
%"class.Assimp::Blender::vector.66" = type { %"class.std::vector.67" }
%"class.std::vector.67" = type { %"struct.std::_Vector_base.68" }
%"struct.std::_Vector_base.68" = type { %"struct.std::_Vector_base<std::shared_ptr<Assimp::Blender::Material>, std::allocator<std::shared_ptr<Assimp::Blender::Material>>>::_Vector_impl" }
%"struct.std::_Vector_base<std::shared_ptr<Assimp::Blender::Material>, std::allocator<std::shared_ptr<Assimp::Blender::Material>>>::_Vector_impl" = type { %"struct.std::_Vector_base<std::shared_ptr<Assimp::Blender::Material>, std::allocator<std::shared_ptr<Assimp::Blender::Material>>>::_Vector_impl_data" }
%"struct.std::_Vector_base<std::shared_ptr<Assimp::Blender::Material>, std::allocator<std::shared_ptr<Assimp::Blender::Material>>>::_Vector_impl_data" = type { ptr, ptr, ptr }
%"struct.Assimp::Blender::CustomData" = type <{ %"struct.Assimp::Blender::ElemBase", %"class.Assimp::Blender::vector.72", [42 x i32], i32, i32, i32, [4 x i8] }>
%"class.Assimp::Blender::vector.72" = type { %"class.std::vector.73" }
%"class.std::vector.73" = type { %"struct.std::_Vector_base.74" }
%"struct.std::_Vector_base.74" = type { %"struct.std::_Vector_base<std::shared_ptr<Assimp::Blender::CustomDataLayer>, std::allocator<std::shared_ptr<Assimp::Blender::CustomDataLayer>>>::_Vector_impl" }
%"struct.std::_Vector_base<std::shared_ptr<Assimp::Blender::CustomDataLayer>, std::allocator<std::shared_ptr<Assimp::Blender::CustomDataLayer>>>::_Vector_impl" = type { %"struct.std::_Vector_base<std::shared_ptr<Assimp::Blender::CustomDataLayer>, std::allocator<std::shared_ptr<Assimp::Blender::CustomDataLayer>>>::_Vector_impl_data" }
%"struct.std::_Vector_base<std::shared_ptr<Assimp::Blender::CustomDataLayer>, std::allocator<std::shared_ptr<Assimp::Blender::CustomDataLayer>>>::_Vector_impl_data" = type { ptr, ptr, ptr }

; Function Attrs: mustprogress nounwind uwtable
define hidden noundef zeroext i1 @_ZNK6Assimp21BlenderBMeshConverter13ContainsBMeshEv(ptr noundef nonnull align 8 dereferenceable(16) %this) #0 align 2 {
entry:
  %this.addr = alloca ptr, align 8
  store ptr %this, ptr %this.addr, align 8
  %this1 = load ptr, ptr %this.addr, align 8
  %BMesh = getelementptr inbounds %"class.Assimp::BlenderBMeshConverter", ptr %this1, i32 0, i32 0
  %0 = load ptr, ptr %BMesh, align 8
  %totpoly = getelementptr inbounds %"struct.Assimp::Blender::Mesh", ptr %0, i32 0, i32 6
  %1 = load i32, ptr %totpoly, align 8
  %tobool = icmp ne i32 %1, 0
  br i1 %tobool, label %land.lhs.true, label %land.end

land.lhs.true:                                    ; preds = %entry
  %BMesh2 = getelementptr inbounds %"class.Assimp::BlenderBMeshConverter", ptr %this1, i32 0, i32 0
  %2 = load ptr, ptr %BMesh2, align 8
  %totloop = getelementptr inbounds %"struct.Assimp::Blender::Mesh", ptr %2, i32 0, i32 5
  %3 = load i32, ptr %totloop, align 4
  %tobool3 = icmp ne i32 %3, 0
  br i1 %tobool3, label %land.rhs, label %land.end

land.rhs:                                         ; preds = %land.lhs.true
  %BMesh4 = getelementptr inbounds %"class.Assimp::BlenderBMeshConverter", ptr %this1, i32 0, i32 0
  %4 = load ptr, ptr %BMesh4, align 8
  %totvert = getelementptr inbounds %"struct.Assimp::Blender::Mesh", ptr %4, i32 0, i32 4
  %5 = load i32, ptr %totvert, align 8
  %tobool5 = icmp ne i32 %5, 0
  br label %land.end

land.end:                                         ; preds = %land.rhs, %land.lhs.true, %entry
  %6 = phi i1 [ false, %land.lhs.true ], [ false, %entry ], [ %tobool5, %land.rhs ]
  ret i1 %6
}