; Function Attrs: mustprogress nofree norecurse nosync nounwind willreturn memory(read, inaccessiblemem: none) uwtable
define hidden noundef zeroext i1 @_ZNK6Assimp21BlenderBMeshConverter13ContainsBMeshEv(ptr nocapture noundef nonnull readonly align 8 dereferenceable(16) %this) local_unnamed_addr #4 align 2 {
entry:
  %0 = load ptr, ptr %this, align 8
  %totpoly = getelementptr inbounds i8, ptr %0, i64 1080
  %1 = load i32, ptr %totpoly, align 8
  %tobool.not = icmp eq i32 %1, 0
  br i1 %tobool.not, label %land.end, label %land.lhs.true

land.lhs.true:                                    ; preds = %entry
  %totloop = getelementptr inbounds i8, ptr %0, i64 1076
  %2 = load i32, ptr %totloop, align 4
  %tobool3.not = icmp eq i32 %2, 0
  br i1 %tobool3.not, label %land.end, label %land.rhs

land.rhs:                                         ; preds = %land.lhs.true
  %totvert = getelementptr inbounds i8, ptr %0, i64 1072
  %3 = load i32, ptr %totvert, align 8
  %tobool5 = icmp ne i32 %3, 0
  br label %land.end

land.end:                                         ; preds = %land.rhs, %land.lhs.true, %entry
  %4 = phi i1 [ false, %land.lhs.true ], [ false, %entry ], [ %tobool5, %land.rhs ]
  ret i1 %4
}